target datalayout = "e-m:e-p270:32:32-p271:32:32-p272:64:64-i64:64-i128:128-f80:128-n8:16:32:64-S128"
target triple = "x86_64-pc-linux-gnu"

%"class.std::__cxx11::basic_string" = type { %"struct.std::__cxx11::basic_string<char>::_Alloc_hider", i64, %union.anon }
%"struct.std::__cxx11::basic_string<char>::_Alloc_hider" = type { ptr }
%union.anon = type { i64, [8 x i8] }
%"class.std::vector" = type { %"struct.std::_Vector_base" }
%"struct.std::_Vector_base" = type { %"struct.std::_Vector_base<t_atom, std::allocator<t_atom>>::_Vector_impl" }
%"struct.std::_Vector_base<t_atom, std::allocator<t_atom>>::_Vector_impl" = type { %"struct.std::_Vector_base<t_atom, std::allocator<t_atom>>::_Vector_impl_data" }
%"struct.std::_Vector_base<t_atom, std::allocator<t_atom>>::_Vector_impl_data" = type { ptr, ptr, ptr }
%struct.BondedInteractionList = type { i32, %"class.std::vector.17" }
%"class.std::vector.17" = type { %"struct.std::_Vector_base.18" }
%"struct.std::_Vector_base.18" = type { %"struct.std::_Vector_base<BondedInteraction, std::allocator<BondedInteraction>>::_Vector_impl" }
%"struct.std::_Vector_base<BondedInteraction, std::allocator<BondedInteraction>>::_Vector_impl" = type { %"struct.std::_Vector_base<BondedInteraction, std::allocator<BondedInteraction>>::_Vector_impl_data" }
%"struct.std::_Vector_base<BondedInteraction, std::allocator<BondedInteraction>>::_Vector_impl_data" = type { ptr, ptr, ptr }
%"struct.gmx::EnumerationArray.16" = type { [6 x %struct.BondedInteractionList] }
%struct.PreprocessResidue = type { %"class.std::__cxx11::basic_string", %"class.std::__cxx11::basic_string", %"class.std::vector", %"class.std::vector.31", %"class.std::vector.36", i8, i32, i8, i8, %"struct.gmx::EnumerationArray.16" }
%"class.std::vector.31" = type { %"struct.std::_Vector_base.32" }
%"struct.std::_Vector_base.32" = type { %"struct.std::_Vector_base<char **, std::allocator<char **>>::_Vector_impl" }
%"struct.std::_Vector_base<char **, std::allocator<char **>>::_Vector_impl" = type { %"struct.std::_Vector_base<char **, std::allocator<char **>>::_Vector_impl_data" }
%"struct.std::_Vector_base<char **, std::allocator<char **>>::_Vector_impl_data" = type { ptr, ptr, ptr }
%"class.std::vector.36" = type { %"struct.std::_Vector_base.37" }
%"struct.std::_Vector_base.37" = type { %"struct.std::_Vector_base<int, std::allocator<int>>::_Vector_impl" }
%"struct.std::_Vector_base<int, std::allocator<int>>::_Vector_impl" = type { %"struct.std::_Vector_base<int, std::allocator<int>>::_Vector_impl_data" }
%"struct.std::_Vector_base<int, std::allocator<int>>::_Vector_impl_data" = type { ptr, ptr, ptr }

; Function Attrs: mustprogress nounwind uwtable
define linkonce_odr noundef i64 @_ZNKSt6vectorI6t_atomSaIS0_EE4sizeEv(ptr noundef nonnull align 8 dereferenceable(24) %0) #2 comdat align 2 {
  %2 = alloca ptr, align 8
  store ptr %0, ptr %2, align 8
  %3 = load ptr, ptr %2, align 8
  %4 = getelementptr inbounds %"struct.std::_Vector_base", ptr %3, i32 0, i32 0
  %5 = getelementptr inbounds %"struct.std::_Vector_base<t_atom, std::allocator<t_atom>>::_Vector_impl_data", ptr %4, i32 0, i32 1
  %6 = load ptr, ptr %5, align 8
  %7 = getelementptr inbounds %"struct.std::_Vector_base", ptr %3, i32 0, i32 0
  %8 = getelementptr inbounds %"struct.std::_Vector_base<t_atom, std::allocator<t_atom>>::_Vector_impl_data", ptr %7, i32 0, i32 0
  %9 = load ptr, ptr %8, align 8
  %10 = ptrtoint ptr %6 to i64
  %11 = ptrtoint ptr %9 to i64
  %12 = sub i64 %10, %11
  %13 = sdiv exact i64 %12, 36
  ret i64 %13
}

; Function Attrs: mustprogress nounwind uwtable
define noundef i32 @_ZNK17PreprocessResidue5natomEv(ptr noundef nonnull align 8 dereferenceable(344) %0) #2 align 2 {
  %2 = alloca ptr, align 8
  store ptr %0, ptr %2, align 8
  %3 = load ptr, ptr %2, align 8
  %4 = getelementptr inbounds %struct.PreprocessResidue, ptr %3, i32 0, i32 2
  %5 = call noundef i64 @_ZNKSt6vectorI6t_atomSaIS0_EE4sizeEv(ptr noundef nonnull align 8 dereferenceable(24) %4) #10
  %6 = trunc i64 %5 to i32
  ret i32 %6
}